target datalayout = "e-m:e-p270:32:32-p271:32:32-p272:64:64-i64:64-i128:128-f80:128-n8:16:32:64-S128"
target triple = "x86_64-pc-linux-gnu"

%struct.AVFilterContext = type { ptr, ptr, ptr, ptr, ptr, i32, ptr, ptr, i32, ptr, ptr, i32, i32, ptr, ptr, ptr, ptr, i32, ptr, i32, i32 }
%struct.EBUR128Context = type { ptr, i32, double, ptr, double, ptr, ptr, ptr, ptr, i32, i32, i32, i32, %struct.rect, %struct.rect, %struct.rect, ptr, i32, i32, i32, i32, i32, ptr, i32, ptr, i32, i32, i32, ptr, ptr, ptr, ptr, [3 x double], [3 x double], [3 x double], [3 x double], %struct.integrator, %struct.integrator, double, double, double, double, i32, i32, i32, double, i32, i32, i32 }
%struct.rect = type { i32, i32, i32, i32 }
%struct.integrator = type { ptr, i32, i32, ptr, i32, double, double, i32, ptr }
%struct.AVFilterFormatsConfig = type { ptr, ptr, ptr, ptr, ptr }

@query_formats.sample_fmts = internal constant [2 x i32] [i32 4, i32 -1], align 4
@query_formats.pix_fmts = internal constant [2 x i32] [i32 2, i32 -1], align 4

; Function Attrs: nounwind uwtable
define internal i32 @query_formats(ptr noundef %0, ptr noundef %1, ptr noundef %2) #1 {
  %4 = alloca i32, align 4
  %5 = alloca ptr, align 8
  %6 = alloca ptr, align 8
  %7 = alloca ptr, align 8
  %8 = alloca ptr, align 8
  %9 = alloca ptr, align 8
  %10 = alloca i32, align 4
  %11 = alloca i32, align 4
  %12 = alloca i32, align 4
  store ptr %0, ptr %5, align 8, !tbaa !4
  store ptr %1, ptr %6, align 8, !tbaa !68
  store ptr %2, ptr %7, align 8, !tbaa !68
  call void @llvm.lifetime.start.p0(i64 8, ptr %8) #14
  %13 = load ptr, ptr %5, align 8, !tbaa !4
  %14 = getelementptr inbounds nuw %struct.AVFilterContext, ptr %13, i32 0, i32 9
  %15 = load ptr, ptr %14, align 8, !tbaa !9
  store ptr %15, ptr %8, align 8, !tbaa !22
  call void @llvm.lifetime.start.p0(i64 8, ptr %9) #14
  call void @llvm.lifetime.start.p0(i64 4, ptr %10) #14
  store i32 0, ptr %10, align 4, !tbaa !51
  call void @llvm.lifetime.start.p0(i64 4, ptr %11) #14
  %16 = load ptr, ptr %8, align 8, !tbaa !22
  %17 = getelementptr inbounds nuw %struct.EBUR128Context, ptr %16, i32 0, i32 10
  %18 = load i32, ptr %17, align 4, !tbaa !34
  %19 = icmp ne i32 %18, 0
  br i1 %19, label %20, label %32

20:                                               ; preds = %3
  %21 = call ptr @ff_make_format_list(ptr noundef @query_formats.pix_fmts)
  store ptr %21, ptr %9, align 8, !tbaa !70
  %22 = load ptr, ptr %9, align 8, !tbaa !70
  %23 = load ptr, ptr %7, align 8, !tbaa !68
  %24 = getelementptr inbounds ptr, ptr %23, i64 0
  %25 = load ptr, ptr %24, align 8, !tbaa !72
  %26 = getelementptr inbounds nuw %struct.AVFilterFormatsConfig, ptr %25, i32 0, i32 0
  %27 = call i32 @ff_formats_ref(ptr noundef %22, ptr noundef %26)
  store i32 %27, ptr %11, align 4, !tbaa !51
  %28 = icmp slt i32 %27, 0
  br i1 %28, label %29, label %31

29:                                               ; preds = %20
  %30 = load i32, ptr %11, align 4, !tbaa !51
  store i32 %30, ptr %4, align 4
  store i32 1, ptr %12, align 4
  br label %54

31:                                               ; preds = %20
  store i32 1, ptr %10, align 4, !tbaa !51
  br label %32

32:                                               ; preds = %31, %3
  %33 = call ptr @ff_make_format_list(ptr noundef @query_formats.sample_fmts)
  store ptr %33, ptr %9, align 8, !tbaa !70
  %34 = load ptr, ptr %9, align 8, !tbaa !70
  %35 = load ptr, ptr %6, align 8, !tbaa !68
  %36 = getelementptr inbounds ptr, ptr %35, i64 0
  %37 = load ptr, ptr %36, align 8, !tbaa !72
  %38 = getelementptr inbounds nuw %struct.AVFilterFormatsConfig, ptr %37, i32 0, i32 0
  %39 = call i32 @ff_formats_ref(ptr noundef %34, ptr noundef %38)
  store i32 %39, ptr %11, align 4, !tbaa !51
  %40 = icmp slt i32 %39, 0
  br i1 %40, label %51, label %41

41:                                               ; preds = %32
  %42 = load ptr, ptr %9, align 8, !tbaa !70
  %43 = load ptr, ptr %7, align 8, !tbaa !68
  %44 = load i32, ptr %10, align 4, !tbaa !51
  %45 = sext i32 %44 to i64
  %46 = getelementptr inbounds ptr, ptr %43, i64 %45
  %47 = load ptr, ptr %46, align 8, !tbaa !72
  %48 = getelementptr inbounds nuw %struct.AVFilterFormatsConfig, ptr %47, i32 0, i32 0
  %49 = call i32 @ff_formats_ref(ptr noundef %42, ptr noundef %48)
  store i32 %49, ptr %11, align 4, !tbaa !51
  %50 = icmp slt i32 %49, 0
  br i1 %50, label %51, label %53

51:                                               ; preds = %41, %32
  %52 = load i32, ptr %11, align 4, !tbaa !51
  store i32 %52, ptr %4, align 4
  store i32 1, ptr %12, align 4
  br label %54

53:                                               ; preds = %41
  store i32 0, ptr %4, align 4
  store i32 1, ptr %12, align 4
  br label %54

54:                                               ; preds = %53, %51, %29
  call void @llvm.lifetime.end.p0(i64 4, ptr %11) #14
  call void @llvm.lifetime.end.p0(i64 4, ptr %10) #14
  call void @llvm.lifetime.end.p0(i64 8, ptr %9) #14
  call void @llvm.lifetime.end.p0(i64 8, ptr %8) #14
  %55 = load i32, ptr %4, align 4
  ret i32 %55
}