; Function Attrs: nounwind uwtable
define internal range(i32 -2147483648, 1) i32 @query_formats(ptr noundef readonly captures(none) %0, ptr noundef readonly captures(none) %1, ptr noundef readonly captures(none) %2) #1 {
  %4 = getelementptr inbounds nuw i8, ptr %0, i64 72
  %5 = load ptr, ptr %4, align 8, !tbaa !4
  %6 = getelementptr inbounds nuw i8, ptr %5, i64 76
  %7 = load i32, ptr %6, align 4, !tbaa !30
  %.not = icmp eq i32 %7, 0
  br i1 %.not, label %13, label %8

8:                                                ; preds = %3
  %9 = tail call ptr @ff_make_format_list(ptr noundef nonnull @query_formats.pix_fmts) #13
  %10 = load ptr, ptr %2, align 8, !tbaa !55
  %11 = tail call i32 @ff_formats_ref(ptr noundef %9, ptr noundef %10) #13
  %12 = icmp slt i32 %11, 0
  br i1 %12, label %22, label %13

13:                                               ; preds = %8, %3
  %.011 = phi i64 [ 0, %3 ], [ 1, %8 ]
  %14 = tail call ptr @ff_make_format_list(ptr noundef nonnull @query_formats.sample_fmts) #13
  %15 = load ptr, ptr %1, align 8, !tbaa !55
  %16 = tail call i32 @ff_formats_ref(ptr noundef %14, ptr noundef %15) #13
  %17 = icmp slt i32 %16, 0
  br i1 %17, label %22, label %18

18:                                               ; preds = %13
  %19 = getelementptr inbounds nuw ptr, ptr %2, i64 %.011
  %20 = load ptr, ptr %19, align 8, !tbaa !55
  %21 = tail call i32 @ff_formats_ref(ptr noundef %14, ptr noundef %20) #13
  %spec.select = tail call i32 @llvm.smin.i32(i32 %21, i32 0)
  br label %22

22:                                               ; preds = %18, %13, %8
  %.012 = phi i32 [ %11, %8 ], [ %16, %13 ], [ %spec.select, %18 ]
  ret i32 %.012
}